; Function Attrs: nounwind uwtable
define internal noundef i32 @add_object_entry_from_pack(ptr noundef %0, ptr noundef %1, i32 noundef %2, ptr noundef %3) #0 {
  %5 = alloca ptr, align 8
  %6 = alloca i64, align 8
  %7 = alloca i32, align 4
  %8 = alloca %struct.object_info, align 8
  store ptr %1, ptr %5, align 8, !tbaa !20
  call void @llvm.lifetime.start.p0(i64 8, ptr nonnull %6) #25
  call void @llvm.lifetime.start.p0(i64 4, ptr nonnull %7) #25
  store i32 0, ptr %7, align 4, !tbaa !30
  %9 = load ptr, ptr @progress_state, align 8, !tbaa !76
  %10 = load i32, ptr @nr_seen, align 4, !tbaa !30
  %11 = add i32 %10, 1
  store i32 %11, ptr @nr_seen, align 4, !tbaa !30
  %12 = zext i32 %11 to i64
  tail call void @display_progress(ptr noundef %9, i64 noundef %12) #25
  %13 = load ptr, ptr @reuse_packfile_bitmap, align 8, !tbaa !141
  %.not.i = icmp eq ptr %13, null
  br i1 %.not.i, label %17, label %14

14:                                               ; preds = %4
  %15 = load ptr, ptr @bitmap_git, align 8, !tbaa !137
  %16 = tail call i32 @bitmap_walk_contains(ptr noundef %15, ptr noundef nonnull %13, ptr noundef %0) #25
  %.not8.i = icmp eq i32 %16, 0
  br i1 %.not8.i, label %17, label %have_duplicate_entry.exit.thread

17:                                               ; preds = %14, %4
  %18 = tail call ptr @packlist_find(ptr noundef nonnull @to_pack, ptr noundef %0) #25
  %.not9.i = icmp eq ptr %18, null
  br i1 %.not9.i, label %have_duplicate_entry.exit, label %have_duplicate_entry.exit.thread

have_duplicate_entry.exit:                        ; preds = %17
  %19 = tail call i64 @nth_packed_object_offset(ptr noundef %1, i32 noundef %2) #25
  store i64 %19, ptr %6, align 8, !tbaa !28
  %20 = call fastcc i32 @want_object_in_pack(ptr noundef %0, i32 noundef 0, ptr noundef %5, ptr noundef %6)
  %.not8 = icmp eq i32 %20, 0
  br i1 %.not8, label %have_duplicate_entry.exit.thread, label %21

21:                                               ; preds = %have_duplicate_entry.exit
  %22 = load ptr, ptr %5, align 8, !tbaa !20
  %.not9 = icmp eq ptr %22, null
  %.pre12 = load i64, ptr %6, align 8, !tbaa !28
  br i1 %.not9, label %oe_set_type.exit.i.thread, label %25

oe_set_type.exit.i.thread:                        ; preds = %21
  %23 = tail call ptr @packlist_alloc(ptr noundef nonnull @to_pack, ptr noundef %0) #25
  %24 = getelementptr inbounds nuw i8, ptr %23, i64 64
  store i32 0, ptr %24, align 8, !tbaa !197
  br label %49

25:                                               ; preds = %21
  call void @llvm.lifetime.start.p0(i64 80, ptr nonnull %8) #25
  %26 = getelementptr inbounds nuw i8, ptr %8, i64 8
  call void @llvm.memset.p0.i64(ptr noundef nonnull align 8 dereferenceable(80) %26, i8 0, i64 72, i1 false)
  store ptr %7, ptr %8, align 8, !tbaa !161
  %27 = load ptr, ptr @the_repository, align 8, !tbaa !4
  %28 = call i32 @packed_object_info(ptr noundef %27, ptr noundef nonnull %22, i64 noundef %.pre12, ptr noundef nonnull %8) #25
  %29 = icmp slt i32 %28, 0
  br i1 %29, label %30, label %34

30:                                               ; preds = %25
  %31 = call fastcc ptr @_(ptr noundef nonnull @.str.183)
  %32 = call ptr @oid_to_hex(ptr noundef %0) #25
  %33 = getelementptr inbounds nuw i8, ptr %22, i64 248
  call void (ptr, ...) @die(ptr noundef %31, ptr noundef %32, ptr noundef nonnull %33) #26
  unreachable

34:                                               ; preds = %25
  %35 = load i32, ptr %7, align 4, !tbaa !30
  %36 = icmp eq i32 %35, 1
  br i1 %36, label %37, label %38

37:                                               ; preds = %34
  call void @add_pending_oid(ptr noundef %3, ptr noundef null, ptr noundef %0, i32 noundef 0) #25
  %.pre.pre = load i32, ptr %7, align 4, !tbaa !30
  br label %38

38:                                               ; preds = %37, %34
  %.pre = phi i32 [ %35, %34 ], [ %.pre.pre, %37 ]
  %.pre.fr = freeze i32 %.pre
  %39 = load i32, ptr @stdin_packs_found_nr, align 4, !tbaa !30
  %40 = add nsw i32 %39, 1
  store i32 %40, ptr @stdin_packs_found_nr, align 4, !tbaa !30
  call void @llvm.lifetime.end.p0(i64 80, ptr nonnull %8) #25
  %41 = call ptr @packlist_alloc(ptr noundef nonnull @to_pack, ptr noundef %0) #25
  %42 = getelementptr inbounds nuw i8, ptr %41, i64 64
  store i32 0, ptr %42, align 8, !tbaa !197
  %43 = icmp sgt i32 %.pre.fr, 7
  br i1 %43, label %44, label %oe_set_type.exit.i

44:                                               ; preds = %38
  call void (ptr, i32, ptr, ...) @BUG_fl(ptr noundef nonnull @.str.150, i32 noundef 220, ptr noundef nonnull @.str.151) #26
  unreachable

oe_set_type.exit.i:                               ; preds = %38
  %45 = icmp sgt i32 %.pre.fr, -1
  %spec.select = select i1 %45, i64 1073741824, i64 0
  %46 = and i32 %.pre.fr, 7
  %47 = zext nneg i32 %46 to i64
  %48 = shl nuw nsw i64 %47, 32
  br label %49

49:                                               ; preds = %oe_set_type.exit.i, %oe_set_type.exit.i.thread
  %50 = phi i64 [ 0, %oe_set_type.exit.i.thread ], [ %48, %oe_set_type.exit.i ]
  %51 = phi ptr [ %23, %oe_set_type.exit.i.thread ], [ %41, %oe_set_type.exit.i ]
  %52 = phi i64 [ 1073741824, %oe_set_type.exit.i.thread ], [ %spec.select, %oe_set_type.exit.i ]
  %53 = getelementptr inbounds nuw i8, ptr %51, i64 88
  %54 = load i64, ptr %53, align 8
  %55 = and i64 %54, -31138512897
  %56 = or disjoint i64 %52, %55
  %57 = or disjoint i64 %56, %50
  store i64 %57, ptr %53, align 8
  %58 = load i32, ptr @nr_result, align 4, !tbaa !30
  %59 = add i32 %58, 1
  store i32 %59, ptr @nr_result, align 4, !tbaa !30
  br i1 %.not9, label %create_object_entry.exit, label %60

60:                                               ; preds = %49
  %61 = load ptr, ptr getelementptr inbounds nuw (i8, ptr @to_pack, i64 56), align 8, !tbaa !9
  %.not.i.i = icmp eq ptr %61, null
  br i1 %.not.i.i, label %71, label %62

62:                                               ; preds = %60
  %63 = getelementptr inbounds nuw i8, ptr %22, i64 148
  %64 = load i32, ptr %63, align 4, !tbaa !30
  %.not9.i.i = icmp eq i32 %64, 0
  br i1 %.not9.i.i, label %70, label %65

65:                                               ; preds = %62
  %66 = and i32 %64, 1023
  %67 = zext nneg i32 %66 to i64
  %68 = and i64 %57, -1024
  %69 = or disjoint i64 %68, %67
  br label %oe_set_in_pack.exit.i

70:                                               ; preds = %62
  call void @oe_map_new_pack(ptr noundef nonnull @to_pack) #25
  br label %71

71:                                               ; preds = %70, %60
  %72 = load ptr, ptr getelementptr inbounds nuw (i8, ptr @to_pack, i64 64), align 8, !tbaa !18
  %73 = load ptr, ptr getelementptr inbounds nuw (i8, ptr @to_pack, i64 8), align 8, !tbaa !19
  %74 = ptrtoint ptr %51 to i64
  %75 = ptrtoint ptr %73 to i64
  %76 = sub i64 %74, %75
  %77 = sdiv exact i64 %76, 12
  %78 = getelementptr inbounds i8, ptr %72, i64 %77
  store ptr %22, ptr %78, align 8, !tbaa !20
  %.pre.pre.i = load i64, ptr %53, align 8
  br label %oe_set_in_pack.exit.i

oe_set_in_pack.exit.i:                            ; preds = %71, %65
  %.pre.i = phi i64 [ %69, %65 ], [ %.pre.pre.i, %71 ]
  %79 = getelementptr inbounds nuw i8, ptr %51, i64 56
  store i64 %.pre12, ptr %79, align 8, !tbaa !24
  br label %create_object_entry.exit

create_object_entry.exit:                         ; preds = %49, %oe_set_in_pack.exit.i
  %80 = phi i64 [ %.pre.i, %oe_set_in_pack.exit.i ], [ %57, %49 ]
  %81 = and i64 %80, -2147483649
  store i64 %81, ptr %53, align 8
  br label %have_duplicate_entry.exit.thread

have_duplicate_entry.exit.thread:                 ; preds = %17, %14, %have_duplicate_entry.exit, %create_object_entry.exit
  call void @llvm.lifetime.end.p0(i64 4, ptr nonnull %7) #25
  call void @llvm.lifetime.end.p0(i64 8, ptr nonnull %6) #25
  ret i32 0
}